; Function Attrs: mustprogress uwtable
define noundef zeroext i1 @_ZNK6icu_7512TimeZoneRuleeqERKS0_(ptr noundef nonnull align 8 dereferenceable(80) %this, ptr noundef nonnull align 8 dereferenceable(80) %that) unnamed_addr #0 align 2 {
entry:
  %cmp = icmp eq ptr %this, %that
  br i1 %cmp, label %lor.end, label %typeid.end

typeid.end:                                       ; preds = %entry
  %vtable = load ptr, ptr %this, align 8
  %0 = getelementptr inbounds i8, ptr %vtable, i64 -8
  %1 = load ptr, ptr %0, align 8
  %vtable2 = load ptr, ptr %that, align 8
  %2 = getelementptr inbounds i8, ptr %vtable2, i64 -8
  %3 = load ptr, ptr %2, align 8
  %__name.i = getelementptr inbounds i8, ptr %1, i64 8
  %4 = load ptr, ptr %__name.i, align 8
  %__name2.i = getelementptr inbounds i8, ptr %3, i64 8
  %5 = load ptr, ptr %__name2.i, align 8
  %cmp.i = icmp eq ptr %4, %5
  br i1 %cmp.i, label %land.lhs.true, label %if.end.i

if.end.i:                                         ; preds = %typeid.end
  %6 = load i8, ptr %4, align 1
  %cmp4.not.i = icmp eq i8 %6, 42
  br i1 %cmp4.not.i, label %lor.end, label %_ZNKSt9type_infoeqERKS_.exit

_ZNKSt9type_infoeqERKS_.exit:                     ; preds = %if.end.i
  %7 = load i8, ptr %5, align 1
  %cmp.i.i = icmp eq i8 %7, 42
  %cond.idx.i.i = zext i1 %cmp.i.i to i64
  %cond.i.i = getelementptr inbounds i8, ptr %5, i64 %cond.idx.i.i
  %call6.i = tail call i32 @strcmp(ptr noundef nonnull dereferenceable(1) %4, ptr noundef nonnull dereferenceable(1) %cond.i.i) #16
  %cmp7.i = icmp eq i32 %call6.i, 0
  br i1 %cmp7.i, label %land.lhs.true, label %lor.end

land.lhs.true:                                    ; preds = %typeid.end, %_ZNKSt9type_infoeqERKS_.exit
  %fName = getelementptr inbounds i8, ptr %this, i64 8
  %fName3 = getelementptr inbounds i8, ptr %that, i64 8
  %fUnion.i.i = getelementptr inbounds i8, ptr %this, i64 16
  %8 = load i16, ptr %fUnion.i.i, align 8
  %conv2.i14.i = and i16 %8, 1
  %tobool.not.i = icmp eq i16 %conv2.i14.i, 0
  br i1 %tobool.not.i, label %if.else.i, label %if.then.i

if.then.i:                                        ; preds = %land.lhs.true
  %fUnion.i5.i = getelementptr inbounds i8, ptr %that, i64 16
  %9 = load i16, ptr %fUnion.i5.i, align 8
  %conv2.i615.i = and i16 %9, 1
  %tobool3.i.not = icmp eq i16 %conv2.i615.i, 0
  br i1 %tobool3.i.not, label %lor.end, label %land.lhs.true5

if.else.i:                                        ; preds = %land.lhs.true
  %cmp.i.i.i = icmp slt i16 %8, 0
  %10 = ashr i16 %8, 5
  %shr.i.i.i = sext i16 %10 to i32
  %fLength.i.i = getelementptr inbounds i8, ptr %this, i64 20
  %11 = load i32, ptr %fLength.i.i, align 4
  %cond.i.i6 = select i1 %cmp.i.i.i, i32 %11, i32 %shr.i.i.i
  %fUnion.i.i7.i = getelementptr inbounds i8, ptr %that, i64 16
  %12 = load i16, ptr %fUnion.i.i7.i, align 8
  %cmp.i.i8.i = icmp slt i16 %12, 0
  %13 = ashr i16 %12, 5
  %shr.i.i9.i = sext i16 %13 to i32
  %fLength.i10.i = getelementptr inbounds i8, ptr %that, i64 20
  %14 = load i32, ptr %fLength.i10.i, align 4
  %cond.i11.i = select i1 %cmp.i.i8.i, i32 %14, i32 %shr.i.i9.i
  %conv2.i1316.i = and i16 %12, 1
  %tobool7.not.i = icmp eq i16 %conv2.i1316.i, 0
  %cmp.i7 = icmp eq i32 %cond.i.i6, %cond.i11.i
  %or.cond.i = and i1 %tobool7.not.i, %cmp.i7
  br i1 %or.cond.i, label %_ZNK6icu_7513UnicodeStringeqERKS0_.exit, label %lor.end

_ZNK6icu_7513UnicodeStringeqERKS0_.exit:          ; preds = %if.else.i
  %call8.i = tail call noundef signext i8 @_ZNK6icu_7513UnicodeString8doEqualsERKS0_i(ptr noundef nonnull align 8 dereferenceable(64) %fName, ptr noundef nonnull align 8 dereferenceable(64) %fName3, i32 noundef %cond.i.i6)
  %tobool9.i.not = icmp eq i8 %call8.i, 0
  br i1 %tobool9.i.not, label %lor.end, label %land.lhs.true5

land.lhs.true5:                                   ; preds = %if.then.i, %_ZNK6icu_7513UnicodeStringeqERKS0_.exit
  %fRawOffset = getelementptr inbounds i8, ptr %this, i64 72
  %15 = load i32, ptr %fRawOffset, align 8
  %fRawOffset6 = getelementptr inbounds i8, ptr %that, i64 72
  %16 = load i32, ptr %fRawOffset6, align 8
  %cmp7 = icmp eq i32 %15, %16
  br i1 %cmp7, label %land.rhs, label %lor.end

land.rhs:                                         ; preds = %land.lhs.true5
  %fDSTSavings = getelementptr inbounds i8, ptr %this, i64 76
  %17 = load i32, ptr %fDSTSavings, align 4
  %fDSTSavings8 = getelementptr inbounds i8, ptr %that, i64 76
  %18 = load i32, ptr %fDSTSavings8, align 4
  %cmp9 = icmp eq i32 %17, %18
  br label %lor.end

lor.end:                                          ; preds = %if.else.i, %if.end.i, %if.then.i, %_ZNKSt9type_infoeqERKS_.exit, %_ZNK6icu_7513UnicodeStringeqERKS0_.exit, %land.lhs.true5, %land.rhs, %entry
  %19 = phi i1 [ true, %entry ], [ false, %land.lhs.true5 ], [ false, %_ZNK6icu_7513UnicodeStringeqERKS0_.exit ], [ false, %_ZNKSt9type_infoeqERKS_.exit ], [ %cmp9, %land.rhs ], [ false, %if.then.i ], [ false, %if.end.i ], [ false, %if.else.i ]
  ret i1 %19
}